; Function Attrs: nounwind uwtable
define ptr @lv_font_get_glyph_bitmap(ptr noundef %0, ptr noundef %1) local_unnamed_addr #0 {
  %3 = load ptr, ptr %0, align 8, !tbaa !3
  %.not = icmp eq ptr %3, null
  br i1 %.not, label %.preheader, label %4

.preheader:                                       ; preds = %2, %.preheader
  br label %.preheader

4:                                                ; preds = %2
  %5 = getelementptr inbounds nuw i8, ptr %3, i64 8
  %6 = load ptr, ptr %5, align 8, !tbaa !12
  %7 = tail call ptr %6(ptr noundef nonnull %0, ptr noundef %1) #5
  ret ptr %7
}